(dp1
S'files'
p2
(dp3
S'apps_projects_models'
p4
(dp5
S'index'
p6
(dp7
S'par'
p8
I0
sS'html_filename'
p9
S'apps_projects_models.html'
p10
sS'name'
p11
S'apps/projects/models'
p12
sS'nums'
p13
ccopy_reg
_reconstructor
p14
(ccoverage.results
Numbers
p15
c__builtin__
object
p16
NtRp17
(dp18
S'n_files'
p19
I1
sS'n_branches'
p20
I0
sS'n_statements'
p21
I19
sS'n_excluded'
p22
I0
sS'n_missing'
p23
I5
sS'n_missing_branches'
p24
I0
sbssS'hash'
p25
S"U\x06M\x14`\xfd\x86\x88\x90'!\xe6\xa2\x81&\x92"
p26
ssS'apps_newsfeed_models'
p27
(dp28
g6
(dp29
g8
I0
sg9
S'apps_newsfeed_models.html'
p30
sg11
S'apps/newsfeed/models'
p31
sg13
g14
(g15
g16
NtRp32
(dp33
g19
I1
sg20
I0
sg21
I16
sg22
I0
sg23
I1
sg24
I0
sbssg25
S'\xd7%j\x8d\x8d\xbe\x89\xec\xa4]\x14T\xe8H\xab\xf5'
p34
ssS'apps_profile___init__'
p35
(dp36
g6
(dp37
g8
I0
sg9
S'apps_profile___init__.html'
p38
sg11
S'apps/profile/__init__'
p39
sg13
g14
(g15
g16
NtRp40
(dp41
g19
I1
sg20
I0
sg21
I0
sg22
I0
sg23
I0
sg24
I0
sbssg25
S'\xb0\xc8pN\xaf>\xa0\xbaz\x144\xe0A9\xb8?'
p42
ssS'manage'
p43
(dp44
g6
(dp45
g8
I0
sg9
S'manage.html'
p46
sg11
g43
sg13
g14
(g15
g16
NtRp47
(dp48
g19
I1
sg20
I0
sg21
I6
sg22
I0
sg23
I0
sg24
I0
sbssg25
S'\xe1yx\xa3p\'\xb0\x81\xf9\x80"\xf5c\x90\xc3]'
p49
ssS'apps_core___init__'
p50
(dp51
g6
(dp52
g8
I0
sg9
S'apps_core___init__.html'
p53
sg11
S'apps/core/__init__'
p54
sg13
g14
(g15
g16
NtRp55
(dp56
g19
I1
sg20
I0
sg21
I0
sg22
I0
sg23
I0
sg24
I0
sbssg25
S'\xb0\xc8pN\xaf>\xa0\xbaz\x144\xe0A9\xb8?'
p57
ssS'apps_issues_managers'
p58
(dp59
g6
(dp60
g8
I0
sg9
S'apps_issues_managers.html'
p61
sg11
S'apps/issues/managers'
p62
sg13
g14
(g15
g16
NtRp63
(dp64
g19
I1
sg20
I0
sg21
I17
sg22
I0
sg23
I5
sg24
I0
sbssg25
S'\x88`!-&\xd2\xc5\xc6\xdd\x80S\x18<\xb6\x83-'
p65
ssS'apps_profile_models'
p66
(dp67
g6
(dp68
g8
I0
sg9
S'apps_profile_models.html'
p69
sg11
S'apps/profile/models'
p70
sg13
g14
(g15
g16
NtRp71
(dp72
g19
I1
sg20
I0
sg21
I9
sg22
I0
sg23
I1
sg24
I0
sbssg25
S'QPE\x8a\xe5\xd7\xb1\xdb\xfa\xa8\x93\x82\xe8\x08\x06\x1c'
p73
ssS'apps_projects___init__'
p74
(dp75
g6
(dp76
g8
I0
sg9
S'apps_projects___init__.html'
p77
sg11
S'apps/projects/__init__'
p78
sg13
g14
(g15
g16
NtRp79
(dp80
g19
I1
sg20
I0
sg21
I0
sg22
I0
sg23
I0
sg24
I0
sbssg25
S'\xb0\xc8pN\xaf>\xa0\xbaz\x144\xe0A9\xb8?'
p81
ssS'settings___init__'
p82
(dp83
g6
(dp84
g8
I0
sg9
S'settings___init__.html'
p85
sg11
S'settings/__init__'
p86
sg13
g14
(g15
g16
NtRp87
(dp88
g19
I1
sg20
I0
sg21
I0
sg22
I0
sg23
I0
sg24
I0
sbssg25
S'\xb0\xc8pN\xaf>\xa0\xbaz\x144\xe0A9\xb8?'
p89
ssS'apps_issues_choices'
p90
(dp91
g6
(dp92
g8
I0
sg9
S'apps_issues_choices.html'
p93
sg11
S'apps/issues/choices'
p94
sg13
g14
(g15
g16
NtRp95
(dp96
g19
I1
sg20
I0
sg21
I6
sg22
I0
sg23
I0
sg24
I0
sbssg25
S'\x1c\xc7u\x11\xc7{\xb9\xaf\xab\xd2_\xd1\xd3\x10\x99V'
p97
ssS'apps_core_models'
p98
(dp99
g6
(dp100
g8
I0
sg9
S'apps_core_models.html'
p101
sg11
S'apps/core/models'
p102
sg13
g14
(g15
g16
NtRp103
(dp104
g19
I1
sg20
I0
sg21
I5
sg22
I0
sg23
I1
sg24
I0
sbssg25
S'\x1d/\x15\x1c\xba\xcd\xda\x99\xac\xec1\x95\xf3\\p`'
p105
ssS'apps_issues___init__'
p106
(dp107
g6
(dp108
g8
I0
sg9
S'apps_issues___init__.html'
p109
sg11
S'apps/issues/__init__'
p110
sg13
g14
(g15
g16
NtRp111
(dp112
g19
I1
sg20
I0
sg21
I0
sg22
I0
sg23
I0
sg24
I0
sbssg25
S'\xb0\xc8pN\xaf>\xa0\xbaz\x144\xe0A9\xb8?'
p113
ssS'apps_projects_choices'
p114
(dp115
g6
(dp116
g8
I0
sg9
S'apps_projects_choices.html'
p117
sg11
S'apps/projects/choices'
p118
sg13
g14
(g15
g16
NtRp119
(dp120
g19
I1
sg20
I0
sg21
I1
sg22
I0
sg23
I0
sg24
I0
sbssg25
S'V\xcf\x98%i\x0e\xabll\xf1\xe0Y\xba\x90%,'
p121
ssS'settings_test'
p122
(dp123
S'index'
p124
(dp125
S'par'
p126
I0
sS'html_filename'
p127
S'settings_test.html'
p128
sS'name'
p129
S'settings/test'
p130
sS'nums'
p131
g14
(g15
g16
NtRp132
(dp133
S'n_files'
p134
I1
sS'n_branches'
p135
I0
sS'n_statements'
p136
I14
sS'n_excluded'
p137
I0
sS'n_missing'
p138
I0
sS'n_missing_branches'
p139
I0
sbssS'hash'
p140
S'^\t*9\xe1.ui\x1fS\xea\x8f\xbd\xf0\xe9:'
p141
ssS'settings_local'
p142
(dp143
g6
(dp144
g8
I0
sg9
S'settings_local.html'
p145
sg11
S'settings/local'
p146
sg13
g14
(g15
g16
NtRp147
(dp148
g19
I1
sg20
I0
sg21
I14
sg22
I0
sg23
I0
sg24
I0
sbssg25
S'^\t*9\xe1.ui\x1fS\xea\x8f\xbd\xf0\xe9:'
p149
ssS'apps_issues_tests_tests'
p150
(dp151
S'index'
p152
(dp153
S'par'
p154
I0
sS'html_filename'
p155
S'apps_issues_tests_tests.html'
p156
sS'name'
p157
S'apps/issues/tests/tests'
p158
sS'nums'
p159
g14
(g15
g16
NtRp160
(dp161
S'n_files'
p162
I1
sS'n_branches'
p163
I0
sS'n_statements'
p164
I1
sS'n_excluded'
p165
I0
sS'n_missing'
p166
I0
sS'n_missing_branches'
p167
I0
sbssS'hash'
p168
S'\x84-\xdc\xdbk\x13ql\x9e\xf0\xd1\x9a\xfak\xbb\xfb'
p169
ssS'apps_issues_tests___init__'
p170
(dp171
g152
(dp172
g154
I0
sg155
S'apps_issues_tests___init__.html'
p173
sg157
S'apps/issues/tests/__init__'
p174
sg159
g14
(g15
g16
NtRp175
(dp176
g162
I1
sg163
I0
sg164
I1
sg165
I0
sg166
I0
sg167
I0
sbssg168
S'!$\xef\xc8\x88\xf5;C\xd7i\x8b\xf0\xac1{4'
p177
ssS'apps_profile_choices'
p178
(dp179
g6
(dp180
g8
I0
sg9
S'apps_profile_choices.html'
p181
sg11
S'apps/profile/choices'
p182
sg13
g14
(g15
g16
NtRp183
(dp184
g19
I1
sg20
I0
sg21
I1
sg22
I0
sg23
I0
sg24
I0
sbssg25
S'\xe893\x08\xb3\xdc@\xcc\x0f\xc7\xd1\xfe\xf8\x13)\x8a'
p185
ssS'settings_common'
p186
(dp187
g6
(dp188
g8
I0
sg9
S'settings_common.html'
p189
sg11
S'settings/common'
p190
sg13
g14
(g15
g16
NtRp191
(dp192
g19
I1
sg20
I0
sg21
I19
sg22
I0
sg23
I0
sg24
I0
sbssg25
S'\x1b-\xbc\xb5k\xb96\x85\x08\\54\x87\xe0%\xd9'
p193
ssS'apps_newsfeed_managers'
p194
(dp195
g6
(dp196
g8
I0
sg9
S'apps_newsfeed_managers.html'
p197
sg11
S'apps/newsfeed/managers'
p198
sg13
g14
(g15
g16
NtRp199
(dp200
g19
I1
sg20
I0
sg21
I10
sg22
I0
sg23
I2
sg24
I0
sbssg25
S'\xa7\x9b#iu\x1fh\xcd>\xbf\xa4\xce$tC\xce'
p201
ssS'apps_newsfeed___init__'
p202
(dp203
g6
(dp204
g8
I0
sg9
S'apps_newsfeed___init__.html'
p205
sg11
S'apps/newsfeed/__init__'
p206
sg13
g14
(g15
g16
NtRp207
(dp208
g19
I1
sg20
I0
sg21
I0
sg22
I0
sg23
I0
sg24
I0
sbssg25
S'\xb0\xc8pN\xaf>\xa0\xbaz\x144\xe0A9\xb8?'
p209
ssS'conf_environment'
p210
(dp211
g6
(dp212
g8
I0
sg9
S'conf_environment.html'
p213
sg11
S'conf/environment'
p214
sg13
g14
(g15
g16
NtRp215
(dp216
g19
I1
sg20
I0
sg21
I15
sg22
I0
sg23
I0
sg24
I0
sbssg25
S'\xd4w\x99qt\xad5\x9aKP\x1a\xb7\x14\x16\xca\xbc'
p217
ssS'apps_issues_models'
p218
(dp219
g6
(dp220
g8
I0
sg9
S'apps_issues_models.html'
p221
sg11
S'apps/issues/models'
p222
sg13
g14
(g15
g16
NtRp223
(dp224
g19
I1
sg20
I0
sg21
I72
sg22
I0
sg23
I25
sg24
I0
sbssg25
S'\xd8G\xc0\x95\xa5mX\xb2\xdf\x1b\xf6c\xc9\x9eZ\xb4'
p225
ssS'conf___init__'
p226
(dp227
g6
(dp228
g8
I0
sg9
S'conf___init__.html'
p229
sg11
S'conf/__init__'
p230
sg13
g14
(g15
g16
NtRp231
(dp232
g19
I1
sg20
I0
sg21
I0
sg22
I0
sg23
I0
sg24
I0
sbssg25
S'\xb0\xc8pN\xaf>\xa0\xbaz\x144\xe0A9\xb8?'
p233
sssS'version'
p234
S'3.5.1'
p235
sS'settings'
p236
S'\x94A\xeaf\x87\xeb\xf8\xc2\xe1\x12\xbe7|\xaf\xa3\xf7'
p237
sS'format'
p238
I1
s.