(dp1
S'files'
p2
(dp3
S'apps_profile_models'
p4
(dp5
S'index'
p6
(dp7
S'par'
p8
I0
sS'html_filename'
p9
S'apps_profile_models.html'
p10
sS'name'
p11
S'apps/profile/models'
p12
sS'nums'
p13
ccopy_reg
_reconstructor
p14
(ccoverage.results
Numbers
p15
c__builtin__
object
p16
NtRp17
(dp18
S'n_files'
p19
I1
sS'n_branches'
p20
I0
sS'n_statements'
p21
I9
sS'n_excluded'
p22
I0
sS'n_missing'
p23
I1
sS'n_missing_branches'
p24
I0
sbssS'hash'
p25
S'QPE\x8a\xe5\xd7\xb1\xdb\xfa\xa8\x93\x82\xe8\x08\x06\x1c'
p26
ssS'settings_local'
p27
(dp28
g6
(dp29
g8
I0
sg9
S'settings_local.html'
p30
sg11
S'settings/local'
p31
sg13
g14
(g15
g16
NtRp32
(dp33
g19
I1
sg20
I0
sg21
I14
sg22
I0
sg23
I0
sg24
I0
sbssg25
S'^\t*9\xe1.ui\x1fS\xea\x8f\xbd\xf0\xe9:'
p34
ssS'apps_projects_models'
p35
(dp36
g6
(dp37
g8
I0
sg9
S'apps_projects_models.html'
p38
sg11
S'apps/projects/models'
p39
sg13
g14
(g15
g16
NtRp40
(dp41
g19
I1
sg20
I0
sg21
I19
sg22
I0
sg23
I5
sg24
I0
sbssg25
S"U\x06M\x14`\xfd\x86\x88\x90'!\xe6\xa2\x81&\x92"
p42
ssS'manage'
p43
(dp44
g6
(dp45
g8
I0
sg9
S'manage.html'
p46
sg11
g43
sg13
g14
(g15
g16
NtRp47
(dp48
g19
I1
sg20
I0
sg21
I6
sg22
I0
sg23
I0
sg24
I0
sbssg25
S'\xe1yx\xa3p\'\xb0\x81\xf9\x80"\xf5c\x90\xc3]'
p49
ssS'apps_newsfeed_managers'
p50
(dp51
g6
(dp52
g8
I0
sg9
S'apps_newsfeed_managers.html'
p53
sg11
S'apps/newsfeed/managers'
p54
sg13
g14
(g15
g16
NtRp55
(dp56
g19
I1
sg20
I0
sg21
I10
sg22
I0
sg23
I2
sg24
I0
sbssg25
S'\xa7\x9b#iu\x1fh\xcd>\xbf\xa4\xce$tC\xce'
p57
ssS'apps_projects___init__'
p58
(dp59
g6
(dp60
g8
I0
sg9
S'apps_projects___init__.html'
p61
sg11
S'apps/projects/__init__'
p62
sg13
g14
(g15
g16
NtRp63
(dp64
g19
I1
sg20
I0
sg21
I0
sg22
I0
sg23
I0
sg24
I0
sbssg25
S'\xb0\xc8pN\xaf>\xa0\xbaz\x144\xe0A9\xb8?'
p65
ssS'apps_newsfeed___init__'
p66
(dp67
g6
(dp68
g8
I0
sg9
S'apps_newsfeed___init__.html'
p69
sg11
S'apps/newsfeed/__init__'
p70
sg13
g14
(g15
g16
NtRp71
(dp72
g19
I1
sg20
I0
sg21
I0
sg22
I0
sg23
I0
sg24
I0
sbssg25
S'\xb0\xc8pN\xaf>\xa0\xbaz\x144\xe0A9\xb8?'
p73
ssS'apps_profile___init__'
p74
(dp75
g6
(dp76
g8
I0
sg9
S'apps_profile___init__.html'
p77
sg11
S'apps/profile/__init__'
p78
sg13
g14
(g15
g16
NtRp79
(dp80
g19
I1
sg20
I0
sg21
I0
sg22
I0
sg23
I0
sg24
I0
sbssg25
S'\xb0\xc8pN\xaf>\xa0\xbaz\x144\xe0A9\xb8?'
p81
ssS'apps_newsfeed_models'
p82
(dp83
g6
(dp84
g8
I0
sg9
S'apps_newsfeed_models.html'
p85
sg11
S'apps/newsfeed/models'
p86
sg13
g14
(g15
g16
NtRp87
(dp88
g19
I1
sg20
I0
sg21
I16
sg22
I0
sg23
I1
sg24
I0
sbssg25
S'\xd7%j\x8d\x8d\xbe\x89\xec\xa4]\x14T\xe8H\xab\xf5'
p89
ssS'conf_environment'
p90
(dp91
g6
(dp92
g8
I0
sg9
S'conf_environment.html'
p93
sg11
S'conf/environment'
p94
sg13
g14
(g15
g16
NtRp95
(dp96
g19
I1
sg20
I0
sg21
I15
sg22
I0
sg23
I0
sg24
I0
sbssg25
S'\xd4w\x99qt\xad5\x9aKP\x1a\xb7\x14\x16\xca\xbc'
p97
ssS'settings___init__'
p98
(dp99
g6
(dp100
g8
I0
sg9
S'settings___init__.html'
p101
sg11
S'settings/__init__'
p102
sg13
g14
(g15
g16
NtRp103
(dp104
g19
I1
sg20
I0
sg21
I0
sg22
I0
sg23
I0
sg24
I0
sbssg25
S'\xb0\xc8pN\xaf>\xa0\xbaz\x144\xe0A9\xb8?'
p105
ssS'apps_issues_models'
p106
(dp107
g6
(dp108
g8
I0
sg9
S'apps_issues_models.html'
p109
sg11
S'apps/issues/models'
p110
sg13
g14
(g15
g16
NtRp111
(dp112
g19
I1
sg20
I0
sg21
I72
sg22
I0
sg23
I25
sg24
I0
sbssg25
S'\xd8G\xc0\x95\xa5mX\xb2\xdf\x1b\xf6c\xc9\x9eZ\xb4'
p113
ssS'apps_issues_choices'
p114
(dp115
g6
(dp116
g8
I0
sg9
S'apps_issues_choices.html'
p117
sg11
S'apps/issues/choices'
p118
sg13
g14
(g15
g16
NtRp119
(dp120
g19
I1
sg20
I0
sg21
I6
sg22
I0
sg23
I0
sg24
I0
sbssg25
S'\x1c\xc7u\x11\xc7{\xb9\xaf\xab\xd2_\xd1\xd3\x10\x99V'
p121
ssS'settings_common'
p122
(dp123
g6
(dp124
g8
I0
sg9
S'settings_common.html'
p125
sg11
S'settings/common'
p126
sg13
g14
(g15
g16
NtRp127
(dp128
g19
I1
sg20
I0
sg21
I19
sg22
I0
sg23
I0
sg24
I0
sbssg25
S'\x1b-\xbc\xb5k\xb96\x85\x08\\54\x87\xe0%\xd9'
p129
ssS'apps_core_models'
p130
(dp131
g6
(dp132
g8
I0
sg9
S'apps_core_models.html'
p133
sg11
S'apps/core/models'
p134
sg13
g14
(g15
g16
NtRp135
(dp136
g19
I1
sg20
I0
sg21
I5
sg22
I0
sg23
I1
sg24
I0
sbssg25
S'\x1d/\x15\x1c\xba\xcd\xda\x99\xac\xec1\x95\xf3\\p`'
p137
ssS'apps_issues___init__'
p138
(dp139
g6
(dp140
g8
I0
sg9
S'apps_issues___init__.html'
p141
sg11
S'apps/issues/__init__'
p142
sg13
g14
(g15
g16
NtRp143
(dp144
g19
I1
sg20
I0
sg21
I0
sg22
I0
sg23
I0
sg24
I0
sbssg25
S'\xb0\xc8pN\xaf>\xa0\xbaz\x144\xe0A9\xb8?'
p145
ssS'apps_projects_choices'
p146
(dp147
g6
(dp148
g8
I0
sg9
S'apps_projects_choices.html'
p149
sg11
S'apps/projects/choices'
p150
sg13
g14
(g15
g16
NtRp151
(dp152
g19
I1
sg20
I0
sg21
I1
sg22
I0
sg23
I0
sg24
I0
sbssg25
S'V\xcf\x98%i\x0e\xabll\xf1\xe0Y\xba\x90%,'
p153
ssS'apps_profile_choices'
p154
(dp155
g6
(dp156
g8
I0
sg9
S'apps_profile_choices.html'
p157
sg11
S'apps/profile/choices'
p158
sg13
g14
(g15
g16
NtRp159
(dp160
g19
I1
sg20
I0
sg21
I1
sg22
I0
sg23
I0
sg24
I0
sbssg25
S'\xe893\x08\xb3\xdc@\xcc\x0f\xc7\xd1\xfe\xf8\x13)\x8a'
p161
ssS'conf___init__'
p162
(dp163
g6
(dp164
g8
I0
sg9
S'conf___init__.html'
p165
sg11
S'conf/__init__'
p166
sg13
g14
(g15
g16
NtRp167
(dp168
g19
I1
sg20
I0
sg21
I0
sg22
I0
sg23
I0
sg24
I0
sbssg25
S'\xb0\xc8pN\xaf>\xa0\xbaz\x144\xe0A9\xb8?'
p169
ssS'apps_core___init__'
p170
(dp171
g6
(dp172
g8
I0
sg9
S'apps_core___init__.html'
p173
sg11
S'apps/core/__init__'
p174
sg13
g14
(g15
g16
NtRp175
(dp176
g19
I1
sg20
I0
sg21
I0
sg22
I0
sg23
I0
sg24
I0
sbssg25
S'\xb0\xc8pN\xaf>\xa0\xbaz\x144\xe0A9\xb8?'
p177
ssS'apps_issues_managers'
p178
(dp179
g6
(dp180
g8
I0
sg9
S'apps_issues_managers.html'
p181
sg11
S'apps/issues/managers'
p182
sg13
g14
(g15
g16
NtRp183
(dp184
g19
I1
sg20
I0
sg21
I17
sg22
I0
sg23
I5
sg24
I0
sbssg25
S'\x88`!-&\xd2\xc5\xc6\xdd\x80S\x18<\xb6\x83-'
p185
sssS'version'
p186
S'3.5.1'
p187
sS'settings'
p188
S'\x94A\xeaf\x87\xeb\xf8\xc2\xe1\x12\xbe7|\xaf\xa3\xf7'
p189
sS'format'
p190
I1
s.