(dp1
S'files'
p2
(dp3
S'apps_profile_migrations_0002_auto__add_field_userprofile_role'
p4
(dp5
S'index'
p6
(dp7
S'par'
p8
I0
sS'html_filename'
p9
S'apps_profile_migrations_0002_auto__add_field_userprofile_role.html'
p10
sS'name'
p11
S'apps/profile/migrations/0002_auto__add_field_userprofile_role'
p12
sS'nums'
p13
ccopy_reg
_reconstructor
p14
(ccoverage.results
Numbers
p15
c__builtin__
object
p16
NtRp17
(dp18
S'n_files'
p19
I1
sS'n_branches'
p20
I0
sS'n_statements'
p21
I11
sS'n_excluded'
p22
I0
sS'n_missing'
p23
I1
sS'n_missing_branches'
p24
I0
sbssS'hash'
p25
S'\x8cs\xdb\x7f<\xae\xe7R#0i\xef\xec\xc8\xeb\x14'
p26
ssS'apps_profile_migrations_0001_initial'
p27
(dp28
g6
(dp29
g8
I0
sg9
S'apps_profile_migrations_0001_initial.html'
p30
sg11
S'apps/profile/migrations/0001_initial'
p31
sg13
g14
(g15
g16
NtRp32
(dp33
g19
I1
sg20
I0
sg21
I12
sg22
I0
sg23
I1
sg24
I0
sbssg25
S'=\x9f\x87\x81\xf7P\xe0 f\xcb\xf5\x86p6\xda0'
p34
ssS'apps_issues_migrations_0006_auto__add_field_issue_assigned_to'
p35
(dp36
g6
(dp37
g8
I0
sg9
S'apps_issues_migrations_0006_auto__add_field_issue_assigned_to.html'
p38
sg11
S'apps/issues/migrations/0006_auto__add_field_issue_assigned_to'
p39
sg13
g14
(g15
g16
NtRp40
(dp41
g19
I1
sg20
I0
sg21
I11
sg22
I0
sg23
I1
sg24
I0
sbssg25
S'\x120\x1f\xb8P\x87\x9d8`\xca\xea\xc2\x0b\xfe\xa4\xc5'
p42
ssS'apps_projects_migrations_0010_auto__del_field_app_git_repo_dir__del_field_app_enable_wiki__del_field'
p43
(dp44
g6
(dp45
g8
I0
sg9
S'apps_projects_migrations_0010_auto__del_field_app_git_repo_dir__del_field_app_enable_wiki__del_field.html'
p46
sg11
S'apps/projects/migrations/0010_auto__del_field_app_git_repo_dir__del_field_app_enable_wiki__del_field'
p47
sg13
g14
(g15
g16
NtRp48
(dp49
g19
I1
sg20
I0
sg21
I19
sg22
I0
sg23
I5
sg24
I0
sbssg25
S'\xdcJP\xaeO\x8e5P\xe3\rJ\xb2\xe2\x14g$'
p50
ssS'apps_projects_migrations_0009_auto__del_version'
p51
(dp52
g6
(dp53
g8
I0
sg9
S'apps_projects_migrations_0009_auto__del_version.html'
p54
sg11
S'apps/projects/migrations/0009_auto__del_version'
p55
sg13
g14
(g15
g16
NtRp56
(dp57
g19
I1
sg20
I0
sg21
I12
sg22
I0
sg23
I2
sg24
I0
sbssg25
S'K\x1aK\xc3!P\xb6%\x81\x84\xcd\xd1\xda\xda\xb9\x16'
p58
ssS'apps_newsfeed_models'
p59
(dp60
g6
(dp61
g8
I0
sg9
S'apps_newsfeed_models.html'
p62
sg11
S'apps/newsfeed/models'
p63
sg13
g14
(g15
g16
NtRp64
(dp65
g19
I1
sg20
I0
sg21
I16
sg22
I0
sg23
I1
sg24
I0
sbssg25
S'\xd7%j\x8d\x8d\xbe\x89\xec\xa4]\x14T\xe8H\xab\xf5'
p66
ssS'apps_profile___init__'
p67
(dp68
g6
(dp69
g8
I0
sg9
S'apps_profile___init__.html'
p70
sg11
S'apps/profile/__init__'
p71
sg13
g14
(g15
g16
NtRp72
(dp73
g19
I1
sg20
I0
sg21
I0
sg22
I0
sg23
I0
sg24
I0
sbssg25
S'\xb0\xc8pN\xaf>\xa0\xbaz\x144\xe0A9\xb8?'
p74
ssS'apps_projects_migrations_0003_auto__add_field_app_slug'
p75
(dp76
g6
(dp77
g8
I0
sg9
S'apps_projects_migrations_0003_auto__add_field_app_slug.html'
p78
sg11
S'apps/projects/migrations/0003_auto__add_field_app_slug'
p79
sg13
g14
(g15
g16
NtRp80
(dp81
g19
I1
sg20
I0
sg21
I11
sg22
I0
sg23
I1
sg24
I0
sbssg25
S'\xf9\xb0\x8dQb6\xf5VkKKk\xa8\xeb`\xe8'
p82
ssS'apps_projects_models'
p83
(dp84
g6
(dp85
g8
I0
sg9
S'apps_projects_models.html'
p86
sg11
S'apps/projects/models'
p87
sg13
g14
(g15
g16
NtRp88
(dp89
g19
I1
sg20
I0
sg21
I19
sg22
I0
sg23
I5
sg24
I0
sbssg25
S"U\x06M\x14`\xfd\x86\x88\x90'!\xe6\xa2\x81&\x92"
p90
ssS'apps_projects_migrations_0004_auto__add_field_app_git_repo_dir'
p91
(dp92
g6
(dp93
g8
I0
sg9
S'apps_projects_migrations_0004_auto__add_field_app_git_repo_dir.html'
p94
sg11
S'apps/projects/migrations/0004_auto__add_field_app_git_repo_dir'
p95
sg13
g14
(g15
g16
NtRp96
(dp97
g19
I1
sg20
I0
sg21
I11
sg22
I0
sg23
I1
sg24
I0
sbssg25
S'\xeb\xdb\x85_\xe1\xc9T\x81d\xe6@\x0e\x94L\x85\xe0'
p98
ssS'apps_projects_migrations_0005_auto__add_field_app_enable_wiki__add_field_app_enable_forum__add_field'
p99
(dp100
g6
(dp101
g8
I0
sg9
S'apps_projects_migrations_0005_auto__add_field_app_enable_wiki__add_field_app_enable_forum__add_field.html'
p102
sg11
S'apps/projects/migrations/0005_auto__add_field_app_enable_wiki__add_field_app_enable_forum__add_field'
p103
sg13
g14
(g15
g16
NtRp104
(dp105
g19
I1
sg20
I0
sg21
I15
sg22
I0
sg23
I3
sg24
I0
sbssg25
S'\xa2C.\xceu\xe0\x87\xba0\xbe\xbf=\x1b\xae\xca\xdc'
p106
ssS'apps_issues_migrations_0002_auto__del_field_issue_version__chg_field_issue_last_modified_date__chg'
p107
(dp108
g6
(dp109
g8
I0
sg9
S'apps_issues_migrations_0002_auto__del_field_issue_version__chg_field_issue_last_modified_date__chg.html'
p110
sg11
S'apps/issues/migrations/0002_auto__del_field_issue_version__chg_field_issue_last_modified_date__chg'
p111
sg13
g14
(g15
g16
NtRp112
(dp113
g19
I1
sg20
I0
sg21
I15
sg22
I0
sg23
I3
sg24
I0
sbssg25
S'=\x86\x12X\x0b\x8b\x00f%a\xe8RC\xe4g\x88'
p114
ssS'apps_core___init__'
p115
(dp116
g6
(dp117
g8
I0
sg9
S'apps_core___init__.html'
p118
sg11
S'apps/core/__init__'
p119
sg13
g14
(g15
g16
NtRp120
(dp121
g19
I1
sg20
I0
sg21
I0
sg22
I0
sg23
I0
sg24
I0
sbssg25
S'\xb0\xc8pN\xaf>\xa0\xbaz\x144\xe0A9\xb8?'
p122
ssS'apps_issues_managers'
p123
(dp124
g6
(dp125
g8
I0
sg9
S'apps_issues_managers.html'
p126
sg11
S'apps/issues/managers'
p127
sg13
g14
(g15
g16
NtRp128
(dp129
g19
I1
sg20
I0
sg21
I17
sg22
I0
sg23
I5
sg24
I0
sbssg25
S'\x88`!-&\xd2\xc5\xc6\xdd\x80S\x18<\xb6\x83-'
p130
ssS'apps_newsfeed_migrations_0001_initial'
p131
(dp132
g6
(dp133
g8
I0
sg9
S'apps_newsfeed_migrations_0001_initial.html'
p134
sg11
S'apps/newsfeed/migrations/0001_initial'
p135
sg13
g14
(g15
g16
NtRp136
(dp137
g19
I1
sg20
I0
sg21
I12
sg22
I0
sg23
I1
sg24
I0
sbssg25
S'\xbc\xa6\x9f\xae\xf5\x9c\x88\xe1\x0ce\xe2\xcf\xcc\xb6\x0b\x8d'
p138
ssS'apps_projects_migrations_0007_auto__add_field_app_enable_chat__chg_field_app_git_repo_dir'
p139
(dp140
g6
(dp141
g8
I0
sg9
S'apps_projects_migrations_0007_auto__add_field_app_enable_chat__chg_field_app_git_repo_dir.html'
p142
sg11
S'apps/projects/migrations/0007_auto__add_field_app_enable_chat__chg_field_app_git_repo_dir'
p143
sg13
g14
(g15
g16
NtRp144
(dp145
g19
I1
sg20
I0
sg21
I13
sg22
I0
sg23
I2
sg24
I0
sbssg25
S'\xb5=\x11x\xa19\xf96\xf40\x05"\x81\xa0\x1c='
p146
ssS'apps_issues_migrations_0008_auto__chg_field_comment_file'
p147
(dp148
g6
(dp149
g8
I0
sg9
S'apps_issues_migrations_0008_auto__chg_field_comment_file.html'
p150
sg11
S'apps/issues/migrations/0008_auto__chg_field_comment_file'
p151
sg13
g14
(g15
g16
NtRp152
(dp153
g19
I1
sg20
I0
sg21
I11
sg22
I0
sg23
I1
sg24
I0
sbssg25
S'\x12\xf3B\xb8^\x8ce\x96\xd2\xf4\xa9=3\x86F\x1c'
p154
ssS'apps_issues_migrations_0005_auto__add_field_milestone_app'
p155
(dp156
g6
(dp157
g8
I0
sg9
S'apps_issues_migrations_0005_auto__add_field_milestone_app.html'
p158
sg11
S'apps/issues/migrations/0005_auto__add_field_milestone_app'
p159
sg13
g14
(g15
g16
NtRp160
(dp161
g19
I1
sg20
I0
sg21
I11
sg22
I0
sg23
I1
sg24
I0
sbssg25
S'\xacAB\x82\xf6\x1c\xf9\x023\xfb\xbb\xb9\x9e\xc3\xf4\x0f'
p162
ssS'apps_projects___init__'
p163
(dp164
g6
(dp165
g8
I0
sg9
S'apps_projects___init__.html'
p166
sg11
S'apps/projects/__init__'
p167
sg13
g14
(g15
g16
NtRp168
(dp169
g19
I1
sg20
I0
sg21
I0
sg22
I0
sg23
I0
sg24
I0
sbssg25
S'\xb0\xc8pN\xaf>\xa0\xbaz\x144\xe0A9\xb8?'
p170
ssS'settings___init__'
p171
(dp172
g6
(dp173
g8
I0
sg9
S'settings___init__.html'
p174
sg11
S'settings/__init__'
p175
sg13
g14
(g15
g16
NtRp176
(dp177
g19
I1
sg20
I0
sg21
I0
sg22
I0
sg23
I0
sg24
I0
sbssg25
S'\xb0\xc8pN\xaf>\xa0\xbaz\x144\xe0A9\xb8?'
p178
ssS'apps_issues_choices'
p179
(dp180
g6
(dp181
g8
I0
sg9
S'apps_issues_choices.html'
p182
sg11
S'apps/issues/choices'
p183
sg13
g14
(g15
g16
NtRp184
(dp185
g19
I1
sg20
I0
sg21
I6
sg22
I0
sg23
I0
sg24
I0
sbssg25
S'\x1c\xc7u\x11\xc7{\xb9\xaf\xab\xd2_\xd1\xd3\x10\x99V'
p186
ssS'apps_core_models'
p187
(dp188
g6
(dp189
g8
I0
sg9
S'apps_core_models.html'
p190
sg11
S'apps/core/models'
p191
sg13
g14
(g15
g16
NtRp192
(dp193
g19
I1
sg20
I0
sg21
I5
sg22
I0
sg23
I1
sg24
I0
sbssg25
S'\x1d/\x15\x1c\xba\xcd\xda\x99\xac\xec1\x95\xf3\\p`'
p194
ssS'apps_issues___init__'
p195
(dp196
g6
(dp197
g8
I0
sg9
S'apps_issues___init__.html'
p198
sg11
S'apps/issues/__init__'
p199
sg13
g14
(g15
g16
NtRp200
(dp201
g19
I1
sg20
I0
sg21
I0
sg22
I0
sg23
I0
sg24
I0
sbssg25
S'\xb0\xc8pN\xaf>\xa0\xbaz\x144\xe0A9\xb8?'
p202
ssS'apps_projects_choices'
p203
(dp204
g6
(dp205
g8
I0
sg9
S'apps_projects_choices.html'
p206
sg11
S'apps/projects/choices'
p207
sg13
g14
(g15
g16
NtRp208
(dp209
g19
I1
sg20
I0
sg21
I1
sg22
I0
sg23
I0
sg24
I0
sbssg25
S'V\xcf\x98%i\x0e\xabll\xf1\xe0Y\xba\x90%,'
p210
ssS'apps_issues_migrations_0004_auto__add_field_issue_milestone'
p211
(dp212
g6
(dp213
g8
I0
sg9
S'apps_issues_migrations_0004_auto__add_field_issue_milestone.html'
p214
sg11
S'apps/issues/migrations/0004_auto__add_field_issue_milestone'
p215
sg13
g14
(g15
g16
NtRp216
(dp217
g19
I1
sg20
I0
sg21
I11
sg22
I0
sg23
I1
sg24
I0
sbssg25
S'\xb3C\xe9\x18\x93\xa639ZI\xabh\xc2\xd0\xcd3'
p218
ssS'apps_projects_migrations_0006_auto'
p219
(dp220
g6
(dp221
g8
I0
sg9
S'apps_projects_migrations_0006_auto.html'
p222
sg11
S'apps/projects/migrations/0006_auto'
p223
sg13
g14
(g15
g16
NtRp224
(dp225
g19
I1
sg20
I0
sg21
I12
sg22
I0
sg23
I1
sg24
I0
sbssg25
S'\xd7\x8d\x0c\xa9\xe3wot\xb9\xee\xa0\xa8\xe5\x80\xe04'
p226
ssS'apps_projects_migrations_0001_initial'
p227
(dp228
g6
(dp229
g8
I0
sg9
S'apps_projects_migrations_0001_initial.html'
p230
sg11
S'apps/projects/migrations/0001_initial'
p231
sg13
g14
(g15
g16
NtRp232
(dp233
g19
I1
sg20
I0
sg21
I15
sg22
I0
sg23
I2
sg24
I0
sbssg25
S'/\xb8\xb3}C\x81\x94\x84\xba\xf9z\x9a?\xa7\xf2\x10'
p234
ssS'apps_profile_models'
p235
(dp236
g6
(dp237
g8
I0
sg9
S'apps_profile_models.html'
p238
sg11
S'apps/profile/models'
p239
sg13
g14
(g15
g16
NtRp240
(dp241
g19
I1
sg20
I0
sg21
I9
sg22
I0
sg23
I1
sg24
I0
sbssg25
S'QPE\x8a\xe5\xd7\xb1\xdb\xfa\xa8\x93\x82\xe8\x08\x06\x1c'
p242
ssS'manage'
p243
(dp244
g6
(dp245
g8
I0
sg9
S'manage.html'
p246
sg11
g243
sg13
g14
(g15
g16
NtRp247
(dp248
g19
I1
sg20
I0
sg21
I6
sg22
I0
sg23
I0
sg24
I0
sbssg25
S'\xe1yx\xa3p\'\xb0\x81\xf9\x80"\xf5c\x90\xc3]'
p249
ssS'apps_newsfeed_migrations_0003_auto__add_field_activity_defect'
p250
(dp251
g6
(dp252
g8
I0
sg9
S'apps_newsfeed_migrations_0003_auto__add_field_activity_defect.html'
p253
sg11
S'apps/newsfeed/migrations/0003_auto__add_field_activity_defect'
p254
sg13
g14
(g15
g16
NtRp255
(dp256
g19
I1
sg20
I0
sg21
I11
sg22
I0
sg23
I1
sg24
I0
sbssg25
S'`\xbd\xf6M\xf1z\x8d\xa8l\x1e\xee\xc3\x96p\xe8\x16'
p257
ssS'apps_issues_migrations_0007_auto__add_comment'
p258
(dp259
g6
(dp260
g8
I0
sg9
S'apps_issues_migrations_0007_auto__add_comment.html'
p261
sg11
S'apps/issues/migrations/0007_auto__add_comment'
p262
sg13
g14
(g15
g16
NtRp263
(dp264
g19
I1
sg20
I0
sg21
I12
sg22
I0
sg23
I1
sg24
I0
sbssg25
S'\xab8N4e~5S\x05\x9f\x03cl\xbc P'
p265
ssS'apps_issues_migrations_0009_auto__add_field_comment_author'
p266
(dp267
g6
(dp268
g8
I0
sg9
S'apps_issues_migrations_0009_auto__add_field_comment_author.html'
p269
sg11
S'apps/issues/migrations/0009_auto__add_field_comment_author'
p270
sg13
g14
(g15
g16
NtRp271
(dp272
g19
I1
sg20
I0
sg21
I11
sg22
I0
sg23
I1
sg24
I0
sbssg25
S"g\xf51\x7f(\xb3\x0f\xe8\x9duQ\xad\xd3'f\x98"
p273
ssS'apps_issues_migrations___init__'
p274
(dp275
g6
(dp276
g8
I0
sg9
S'apps_issues_migrations___init__.html'
p277
sg11
S'apps/issues/migrations/__init__'
p278
sg13
g14
(g15
g16
NtRp279
(dp280
g19
I1
sg20
I0
sg21
I0
sg22
I0
sg23
I0
sg24
I0
sbssg25
S'\xb0\xc8pN\xaf>\xa0\xbaz\x144\xe0A9\xb8?'
p281
ssS'apps_issues_migrations_0010_auto__add_field_comment_creation_date_time'
p282
(dp283
g6
(dp284
g8
I0
sg9
S'apps_issues_migrations_0010_auto__add_field_comment_creation_date_time.html'
p285
sg11
S'apps/issues/migrations/0010_auto__add_field_comment_creation_date_time'
p286
sg13
g14
(g15
g16
NtRp287
(dp288
g19
I1
sg20
I0
sg21
I11
sg22
I0
sg23
I1
sg24
I0
sbssg25
S'\x98\xf8;6\x16\x1aR>\xef\xbcG\xe0@\x0f\x85\n'
p289
ssS'apps_profile_choices'
p290
(dp291
g6
(dp292
g8
I0
sg9
S'apps_profile_choices.html'
p293
sg11
S'apps/profile/choices'
p294
sg13
g14
(g15
g16
NtRp295
(dp296
g19
I1
sg20
I0
sg21
I1
sg22
I0
sg23
I0
sg24
I0
sbssg25
S'\xe893\x08\xb3\xdc@\xcc\x0f\xc7\xd1\xfe\xf8\x13)\x8a'
p297
ssS'apps_projects_migrations_0008_auto__del_field_app_enable_chat'
p298
(dp299
g6
(dp300
g8
I0
sg9
S'apps_projects_migrations_0008_auto__del_field_app_enable_chat.html'
p301
sg11
S'apps/projects/migrations/0008_auto__del_field_app_enable_chat'
p302
sg13
g14
(g15
g16
NtRp303
(dp304
g19
I1
sg20
I0
sg21
I11
sg22
I0
sg23
I1
sg24
I0
sbssg25
S'\xb0\x19\xbcj6\x00\xe7t9\xe0\xeaX\x95R\x18\xa1'
p305
ssS'apps_newsfeed_migrations___init__'
p306
(dp307
g6
(dp308
g8
I0
sg9
S'apps_newsfeed_migrations___init__.html'
p309
sg11
S'apps/newsfeed/migrations/__init__'
p310
sg13
g14
(g15
g16
NtRp311
(dp312
g19
I1
sg20
I0
sg21
I0
sg22
I0
sg23
I0
sg24
I0
sbssg25
S'\xb0\xc8pN\xaf>\xa0\xbaz\x144\xe0A9\xb8?'
p313
ssS'apps_projects_migrations_0002_auto__add_field_version_release_date__add_field_version_status'
p314
(dp315
g6
(dp316
g8
I0
sg9
S'apps_projects_migrations_0002_auto__add_field_version_release_date__add_field_version_status.html'
p317
sg11
S'apps/projects/migrations/0002_auto__add_field_version_release_date__add_field_version_status'
p318
sg13
g14
(g15
g16
NtRp319
(dp320
g19
I1
sg20
I0
sg21
I13
sg22
I0
sg23
I2
sg24
I0
sbssg25
S'8\x89k\xc1\xe8\nw@1\x96\xfd\xda\xc4B#['
p321
ssS'apps_projects_migrations___init__'
p322
(dp323
g6
(dp324
g8
I0
sg9
S'apps_projects_migrations___init__.html'
p325
sg11
S'apps/projects/migrations/__init__'
p326
sg13
g14
(g15
g16
NtRp327
(dp328
g19
I1
sg20
I0
sg21
I0
sg22
I0
sg23
I0
sg24
I0
sbssg25
S'\xb0\xc8pN\xaf>\xa0\xbaz\x144\xe0A9\xb8?'
p329
ssS'settings_common'
p330
(dp331
g6
(dp332
g8
I0
sg9
S'settings_common.html'
p333
sg11
S'settings/common'
p334
sg13
g14
(g15
g16
NtRp335
(dp336
g19
I1
sg20
I0
sg21
I19
sg22
I0
sg23
I0
sg24
I0
sbssg25
S'\x1b-\xbc\xb5k\xb96\x85\x08\\54\x87\xe0%\xd9'
p337
ssS'apps_newsfeed_migrations_0002_auto__del_field_activity_app__add_field_activity_application'
p338
(dp339
g6
(dp340
g8
I0
sg9
S'apps_newsfeed_migrations_0002_auto__del_field_activity_app__add_field_activity_application.html'
p341
sg11
S'apps/newsfeed/migrations/0002_auto__del_field_activity_app__add_field_activity_application'
p342
sg13
g14
(g15
g16
NtRp343
(dp344
g19
I1
sg20
I0
sg21
I13
sg22
I0
sg23
I2
sg24
I0
sbssg25
S'\xdc\x08\xafJ\x14D\xeb\xfc[\xa3Fl\xea~gb'
p345
ssS'apps_issues_migrations_0011_auto__add_field_issue_file'
p346
(dp347
g6
(dp348
g8
I0
sg9
S'apps_issues_migrations_0011_auto__add_field_issue_file.html'
p349
sg11
S'apps/issues/migrations/0011_auto__add_field_issue_file'
p350
sg13
g14
(g15
g16
NtRp351
(dp352
g19
I1
sg20
I0
sg21
I11
sg22
I0
sg23
I1
sg24
I0
sbssg25
S'*\xb0\xbf\xb1\xd0\x8e\xa9>=\xb8\x9d\xfc7\xcbP\xa0'
p353
ssS'apps_newsfeed_managers'
p354
(dp355
g6
(dp356
g8
I0
sg9
S'apps_newsfeed_managers.html'
p357
sg11
S'apps/newsfeed/managers'
p358
sg13
g14
(g15
g16
NtRp359
(dp360
g19
I1
sg20
I0
sg21
I10
sg22
I0
sg23
I2
sg24
I0
sbssg25
S'\xa7\x9b#iu\x1fh\xcd>\xbf\xa4\xce$tC\xce'
p361
ssS'apps_newsfeed___init__'
p362
(dp363
g6
(dp364
g8
I0
sg9
S'apps_newsfeed___init__.html'
p365
sg11
S'apps/newsfeed/__init__'
p366
sg13
g14
(g15
g16
NtRp367
(dp368
g19
I1
sg20
I0
sg21
I0
sg22
I0
sg23
I0
sg24
I0
sbssg25
S'\xb0\xc8pN\xaf>\xa0\xbaz\x144\xe0A9\xb8?'
p369
ssS'conf_environment'
p370
(dp371
g6
(dp372
g8
I0
sg9
S'conf_environment.html'
p373
sg11
S'conf/environment'
p374
sg13
g14
(g15
g16
NtRp375
(dp376
g19
I1
sg20
I0
sg21
I15
sg22
I0
sg23
I0
sg24
I0
sbssg25
S'\xd4w\x99qt\xad5\x9aKP\x1a\xb7\x14\x16\xca\xbc'
p377
ssS'apps_issues_models'
p378
(dp379
g6
(dp380
g8
I0
sg9
S'apps_issues_models.html'
p381
sg11
S'apps/issues/models'
p382
sg13
g14
(g15
g16
NtRp383
(dp384
g19
I1
sg20
I0
sg21
I72
sg22
I0
sg23
I25
sg24
I0
sbssg25
S'\xd8G\xc0\x95\xa5mX\xb2\xdf\x1b\xf6c\xc9\x9eZ\xb4'
p385
ssS'apps_issues_migrations_0003_auto__add_milestone'
p386
(dp387
g6
(dp388
g8
I0
sg9
S'apps_issues_migrations_0003_auto__add_milestone.html'
p389
sg11
S'apps/issues/migrations/0003_auto__add_milestone'
p390
sg13
g14
(g15
g16
NtRp391
(dp392
g19
I1
sg20
I0
sg21
I12
sg22
I0
sg23
I1
sg24
I0
sbssg25
S'\xb4\xcb\xf1\x80\xf5\x1cVt>\x1dk\x7f\xbcL\x87\xbd'
p393
ssS'apps_core_migrations_0001_initial'
p394
(dp395
g6
(dp396
g8
I0
sg9
S'apps_core_migrations_0001_initial.html'
p397
sg11
S'apps/core/migrations/0001_initial'
p398
sg13
g14
(g15
g16
NtRp399
(dp400
g19
I1
sg20
I0
sg21
I12
sg22
I0
sg23
I1
sg24
I0
sbssg25
S'\xe8\x8674Q\x13*\xab\xb9\x1bo\xfa\xab\x8aV>'
p401
ssS'conf___init__'
p402
(dp403
g6
(dp404
g8
I0
sg9
S'conf___init__.html'
p405
sg11
S'conf/__init__'
p406
sg13
g14
(g15
g16
NtRp407
(dp408
g19
I1
sg20
I0
sg21
I0
sg22
I0
sg23
I0
sg24
I0
sbssg25
S'\xb0\xc8pN\xaf>\xa0\xbaz\x144\xe0A9\xb8?'
p409
ssS'apps_core_migrations___init__'
p410
(dp411
g6
(dp412
g8
I0
sg9
S'apps_core_migrations___init__.html'
p413
sg11
S'apps/core/migrations/__init__'
p414
sg13
g14
(g15
g16
NtRp415
(dp416
g19
I1
sg20
I0
sg21
I0
sg22
I0
sg23
I0
sg24
I0
sbssg25
S'\xb0\xc8pN\xaf>\xa0\xbaz\x144\xe0A9\xb8?'
p417
ssS'apps_issues_migrations_0001_initial'
p418
(dp419
g6
(dp420
g8
I0
sg9
S'apps_issues_migrations_0001_initial.html'
p421
sg11
S'apps/issues/migrations/0001_initial'
p422
sg13
g14
(g15
g16
NtRp423
(dp424
g19
I1
sg20
I0
sg21
I12
sg22
I0
sg23
I1
sg24
I0
sbssg25
S'\xf0\xf0\xc6O&k\x8e\xc9=\x00\xe2r?z_\x89'
p425
ssS'apps_newsfeed_migrations_0004_auto__del_field_activity_defect__add_field_activity_issue'
p426
(dp427
g6
(dp428
g8
I0
sg9
S'apps_newsfeed_migrations_0004_auto__del_field_activity_defect__add_field_activity_issue.html'
p429
sg11
S'apps/newsfeed/migrations/0004_auto__del_field_activity_defect__add_field_activity_issue'
p430
sg13
g14
(g15
g16
NtRp431
(dp432
g19
I1
sg20
I0
sg21
I13
sg22
I0
sg23
I2
sg24
I0
sbssg25
S'\x10\xcc\xe0\xbe\xa0\xfc\x19|\xef\xd7@\xa7hT\xd8\t'
p433
ssS'apps_profile_migrations___init__'
p434
(dp435
g6
(dp436
g8
I0
sg9
S'apps_profile_migrations___init__.html'
p437
sg11
S'apps/profile/migrations/__init__'
p438
sg13
g14
(g15
g16
NtRp439
(dp440
g19
I1
sg20
I0
sg21
I0
sg22
I0
sg23
I0
sg24
I0
sbssg25
S'\xb0\xc8pN\xaf>\xa0\xbaz\x144\xe0A9\xb8?'
p441
ssS'settings_local'
p442
(dp443
g6
(dp444
g8
I0
sg9
S'settings_local.html'
p445
sg11
S'settings/local'
p446
sg13
g14
(g15
g16
NtRp447
(dp448
g19
I1
sg20
I0
sg21
I13
sg22
I0
sg23
I0
sg24
I0
sbssg25
S'\x0e\xa51\xf5\x8b\xea\xf5\x02\x11\xc2[\xc9\xd2\x0b$\x01'
p449
sssS'version'
p450
S'3.5.1'
p451
sS'settings'
p452
S"\x18\\\xc0\xf9'\xe3\x17\xc0\xf7'v\xb2\xbd\x00\xadL"
p453
sS'format'
p454
I1
s.